target datalayout = "e-m:e-p270:32:32-p271:32:32-p272:64:64-i64:64-i128:128-f80:128-n8:16:32:64-S128"
target triple = "x86_64-pc-linux-gnu"

%struct.GetOneObjectData = type { i32, ptr, i32, i32 }

@SDL_objects = internal global ptr null, align 8

; Function Attrs: nounwind uwtable
define hidden i32 @SDL_GetObjects(i32 noundef %0, ptr noundef %1, i32 noundef %2) #0 {
  %4 = alloca i32, align 4
  %5 = alloca ptr, align 8
  %6 = alloca i32, align 4
  %7 = alloca %struct.GetOneObjectData, align 8
  store i32 %0, ptr %4, align 4
  store ptr %1, ptr %5, align 8
  store i32 %2, ptr %6, align 4
  call void @llvm.lifetime.start.p0(i64 24, ptr %7) #6
  %8 = getelementptr inbounds nuw %struct.GetOneObjectData, ptr %7, i32 0, i32 0
  %9 = load i32, ptr %4, align 4
  store i32 %9, ptr %8, align 8
  %10 = getelementptr i8, ptr %7, i64 4
  call void @llvm.memset.p0.i64(ptr align 4 %10, i8 0, i64 4, i1 false)
  %11 = getelementptr inbounds nuw %struct.GetOneObjectData, ptr %7, i32 0, i32 1
  %12 = load ptr, ptr %5, align 8
  store ptr %12, ptr %11, align 8
  %13 = getelementptr inbounds nuw %struct.GetOneObjectData, ptr %7, i32 0, i32 2
  %14 = load i32, ptr %6, align 4
  store i32 %14, ptr %13, align 8
  %15 = getelementptr inbounds nuw %struct.GetOneObjectData, ptr %7, i32 0, i32 3
  store i32 0, ptr %15, align 4
  %16 = load ptr, ptr @SDL_objects, align 8
  %17 = call zeroext i1 @SDL_IterateHashTable(ptr noundef %16, ptr noundef @GetOneObject, ptr noundef %7)
  %18 = getelementptr inbounds nuw %struct.GetOneObjectData, ptr %7, i32 0, i32 3
  %19 = load i32, ptr %18, align 4
  call void @llvm.lifetime.end.p0(i64 24, ptr %7) #6
  ret i32 %19
}