; Function Attrs: nounwind uwtable
define hidden i32 @SDL_GetObjects(i32 noundef %0, ptr noundef %1, i32 noundef %2) local_unnamed_addr #4 {
  %4 = alloca %struct.GetOneObjectData, align 8
  call void @llvm.lifetime.start.p0(i64 24, ptr nonnull %4) #10
  store i32 %0, ptr %4, align 8
  %5 = getelementptr inbounds nuw i8, ptr %4, i64 4
  store i32 0, ptr %5, align 4
  %6 = getelementptr inbounds nuw i8, ptr %4, i64 8
  store ptr %1, ptr %6, align 8
  %7 = getelementptr inbounds nuw i8, ptr %4, i64 16
  store i32 %2, ptr %7, align 8
  %8 = getelementptr inbounds nuw i8, ptr %4, i64 20
  store i32 0, ptr %8, align 4
  %9 = load ptr, ptr @SDL_objects, align 8
  %10 = call zeroext i1 @SDL_IterateHashTable(ptr noundef %9, ptr noundef nonnull @GetOneObject, ptr noundef nonnull %4) #10
  %11 = load i32, ptr %8, align 4
  call void @llvm.lifetime.end.p0(i64 24, ptr nonnull %4) #10
  ret i32 %11
}